; Function Attrs: mustprogress nofree norecurse nosync nounwind willreturn memory(readwrite, inaccessiblemem: none) uwtable
define internal void @_ZL38hb_paint_extents_paint_radial_gradientP16hb_paint_funcs_tPvP15hb_color_line_tffffffS1_(ptr nocapture readnone %0, ptr nocapture noundef readonly %1, ptr nocapture readnone %2, float %3, float %4, float %5, float %6, float %7, float %8, ptr nocapture readnone %9) #5 {
  %11 = getelementptr inbounds i8, ptr %1, i64 20
  %12 = load i32, ptr %11, align 4
  %.not.i.not.i.i = icmp eq i32 %12, 0
  br i1 %.not.i.not.i.i, label %13, label %14

13:                                               ; preds = %10
  tail call void @llvm.memcpy.p0.p0.i64(ptr noundef nonnull align 16 dereferenceable(20) @_hb_CrapPool, ptr noundef nonnull align 16 dereferenceable(20) @_hb_NullPool, i64 20, i1 false)
  br label %_ZN11hb_vector_tI11hb_bounds_tLb0EE4tailEv.exit.i

14:                                               ; preds = %10
  %15 = add i32 %12, -1
  %16 = getelementptr inbounds i8, ptr %1, i64 24
  %17 = load ptr, ptr %16, align 8
  %18 = zext i32 %15 to i64
  %19 = getelementptr inbounds %struct.hb_bounds_t, ptr %17, i64 %18
  br label %_ZN11hb_vector_tI11hb_bounds_tLb0EE4tailEv.exit.i

_ZN11hb_vector_tI11hb_bounds_tLb0EE4tailEv.exit.i: ; preds = %14, %13
  %.0.i.i.i = phi ptr [ @_hb_CrapPool, %13 ], [ %19, %14 ]
  %20 = getelementptr inbounds i8, ptr %1, i64 36
  %21 = load i32, ptr %20, align 4
  %.not.i.not.i3.i = icmp eq i32 %21, 0
  br i1 %.not.i.not.i3.i, label %22, label %23

22:                                               ; preds = %_ZN11hb_vector_tI11hb_bounds_tLb0EE4tailEv.exit.i
  tail call void @llvm.memcpy.p0.p0.i64(ptr noundef nonnull align 16 dereferenceable(20) @_hb_CrapPool, ptr noundef nonnull align 16 dereferenceable(20) @_hb_NullPool, i64 20, i1 false)
  br label %_ZN11hb_vector_tI11hb_bounds_tLb0EE4tailEv.exit5.i

23:                                               ; preds = %_ZN11hb_vector_tI11hb_bounds_tLb0EE4tailEv.exit.i
  %24 = add i32 %21, -1
  %25 = getelementptr inbounds i8, ptr %1, i64 40
  %26 = load ptr, ptr %25, align 8
  %27 = zext i32 %24 to i64
  %28 = getelementptr inbounds %struct.hb_bounds_t, ptr %26, i64 %27
  br label %_ZN11hb_vector_tI11hb_bounds_tLb0EE4tailEv.exit5.i

_ZN11hb_vector_tI11hb_bounds_tLb0EE4tailEv.exit5.i: ; preds = %23, %22
  %.0.i.i4.i = phi ptr [ @_hb_CrapPool, %22 ], [ %28, %23 ]
  %29 = load i32, ptr %.0.i.i.i, align 4
  switch i32 %29, label %_ZN26hb_paint_extents_context_t5paintEv.exit [
    i32 0, label %30
    i32 1, label %31
  ]

30:                                               ; preds = %_ZN11hb_vector_tI11hb_bounds_tLb0EE4tailEv.exit5.i
  store i32 0, ptr %.0.i.i4.i, align 4
  br label %_ZN26hb_paint_extents_context_t5paintEv.exit

31:                                               ; preds = %_ZN11hb_vector_tI11hb_bounds_tLb0EE4tailEv.exit5.i
  %32 = load i32, ptr %.0.i.i4.i, align 4
  switch i32 %32, label %_ZN26hb_paint_extents_context_t5paintEv.exit [
    i32 2, label %33
    i32 1, label %34
  ]

33:                                               ; preds = %31
  tail call void @llvm.memcpy.p0.p0.i64(ptr noundef nonnull align 4 dereferenceable(20) %.0.i.i4.i, ptr noundef nonnull align 4 dereferenceable(20) %.0.i.i.i, i64 20, i1 false)
  br label %_ZN26hb_paint_extents_context_t5paintEv.exit

34:                                               ; preds = %31
  %35 = getelementptr inbounds i8, ptr %.0.i.i4.i, i64 4
  %36 = getelementptr inbounds i8, ptr %.0.i.i.i, i64 4
  %37 = load float, ptr %35, align 4
  %38 = load float, ptr %36, align 4
  %39 = fcmp ole float %37, %38
  %40 = select i1 %39, float %37, float %38
  store float %40, ptr %35, align 4
  %41 = getelementptr inbounds i8, ptr %.0.i.i4.i, i64 8
  %42 = getelementptr inbounds i8, ptr %.0.i.i.i, i64 8
  %43 = load float, ptr %41, align 4
  %44 = load float, ptr %42, align 4
  %45 = fcmp ole float %43, %44
  %46 = select i1 %45, float %43, float %44
  store float %46, ptr %41, align 4
  %47 = getelementptr inbounds i8, ptr %.0.i.i4.i, i64 12
  %48 = getelementptr inbounds i8, ptr %.0.i.i.i, i64 12
  %49 = load float, ptr %47, align 4
  %50 = load float, ptr %48, align 4
  %51 = fcmp oge float %49, %50
  %52 = select i1 %51, float %49, float %50
  store float %52, ptr %47, align 4
  %53 = getelementptr inbounds i8, ptr %.0.i.i4.i, i64 16
  %54 = getelementptr inbounds i8, ptr %.0.i.i.i, i64 16
  %55 = load float, ptr %53, align 4
  %56 = load float, ptr %54, align 4
  %57 = fcmp oge float %55, %56
  %58 = select i1 %57, float %55, float %56
  store float %58, ptr %53, align 4
  br label %_ZN26hb_paint_extents_context_t5paintEv.exit

_ZN26hb_paint_extents_context_t5paintEv.exit:     ; preds = %_ZN11hb_vector_tI11hb_bounds_tLb0EE4tailEv.exit5.i, %30, %31, %33, %34
  ret void
}